target datalayout = "e-m:e-p270:32:32-p271:32:32-p272:64:64-i64:64-i128:128-f80:128-n8:16:32:64-S128"
target triple = "x86_64-pc-linux-gnu"

%struct.mbedtls_lmots_public_t = type { %struct.mbedtls_lmots_parameters_t, [32 x i8], i8 }
%struct.mbedtls_lmots_parameters_t = type { [16 x i8], [4 x i8], i32 }

; Function Attrs: alwaysinline nounwind uwtable
define internal void @mbedtls_put_unaligned_uint32(ptr noundef %0, i32 noundef %1) #3 {
  %3 = alloca ptr, align 8
  %4 = alloca i32, align 4
  store ptr %0, ptr %3, align 8, !tbaa !7
  store i32 %1, ptr %4, align 4, !tbaa !3
  %5 = load ptr, ptr %3, align 8, !tbaa !7
  call void @llvm.memcpy.p0.p0.i64(ptr align 1 %5, ptr align 4 %4, i64 4, i1 false)
  ret void
}

; Function Attrs: nounwind uwtable
define hidden i32 @mbedtls_lmots_export_public_key(ptr noundef %0, ptr noundef %1, i64 noundef %2, ptr noundef %3) #0 {
  %5 = alloca i32, align 4
  %6 = alloca ptr, align 8
  %7 = alloca ptr, align 8
  %8 = alloca i64, align 8
  %9 = alloca ptr, align 8
  store ptr %0, ptr %6, align 8, !tbaa !7
  store ptr %1, ptr %7, align 8, !tbaa !9
  store i64 %2, ptr %8, align 8, !tbaa !11
  store ptr %3, ptr %9, align 8, !tbaa !17
  %10 = load i64, ptr %8, align 8, !tbaa !11
  %11 = load ptr, ptr %6, align 8, !tbaa !7
  %12 = getelementptr inbounds nuw %struct.mbedtls_lmots_public_t, ptr %11, i32 0, i32 0
  %13 = getelementptr inbounds nuw %struct.mbedtls_lmots_parameters_t, ptr %12, i32 0, i32 2
  %14 = load i32, ptr %13, align 4, !tbaa !13
  %15 = icmp eq i32 %14, 4
  %16 = select i1 %15, i32 32, i32 0
  %17 = add i32 24, %16
  %18 = zext i32 %17 to i64
  %19 = icmp ult i64 %10, %18
  br i1 %19, label %20, label %21

20:                                               ; preds = %4
  store i32 -25, ptr %5, align 4
  br label %72

21:                                               ; preds = %4
  %22 = load ptr, ptr %6, align 8, !tbaa !7
  %23 = getelementptr inbounds nuw %struct.mbedtls_lmots_public_t, ptr %22, i32 0, i32 2
  %24 = load i8, ptr %23, align 4, !tbaa !16
  %25 = icmp ne i8 %24, 0
  br i1 %25, label %27, label %26

26:                                               ; preds = %21
  store i32 -17, ptr %5, align 4
  br label %72

27:                                               ; preds = %21
  %28 = load ptr, ptr %7, align 8, !tbaa !9
  %29 = getelementptr inbounds i8, ptr %28, i64 0
  %30 = load ptr, ptr %6, align 8, !tbaa !7
  %31 = getelementptr inbounds nuw %struct.mbedtls_lmots_public_t, ptr %30, i32 0, i32 0
  %32 = getelementptr inbounds nuw %struct.mbedtls_lmots_parameters_t, ptr %31, i32 0, i32 2
  %33 = load i32, ptr %32, align 4, !tbaa !13
  %34 = call i32 @llvm.bswap.i32(i32 %33)
  call void @mbedtls_put_unaligned_uint32(ptr noundef %29, i32 noundef %34)
  %35 = load ptr, ptr %7, align 8, !tbaa !9
  %36 = getelementptr inbounds nuw i8, ptr %35, i64 4
  %37 = load ptr, ptr %6, align 8, !tbaa !7
  %38 = getelementptr inbounds nuw %struct.mbedtls_lmots_public_t, ptr %37, i32 0, i32 0
  %39 = getelementptr inbounds nuw %struct.mbedtls_lmots_parameters_t, ptr %38, i32 0, i32 0
  %40 = getelementptr inbounds [16 x i8], ptr %39, i64 0, i64 0
  call void @llvm.memcpy.p0.p0.i64(ptr align 1 %36, ptr align 4 %40, i64 16, i1 false)
  %41 = load ptr, ptr %7, align 8, !tbaa !9
  %42 = getelementptr inbounds nuw i8, ptr %41, i64 20
  %43 = load ptr, ptr %6, align 8, !tbaa !7
  %44 = getelementptr inbounds nuw %struct.mbedtls_lmots_public_t, ptr %43, i32 0, i32 0
  %45 = getelementptr inbounds nuw %struct.mbedtls_lmots_parameters_t, ptr %44, i32 0, i32 1
  %46 = getelementptr inbounds [4 x i8], ptr %45, i64 0, i64 0
  call void @llvm.memcpy.p0.p0.i64(ptr align 1 %42, ptr align 4 %46, i64 4, i1 false)
  %47 = load ptr, ptr %7, align 8, !tbaa !9
  %48 = getelementptr inbounds nuw i8, ptr %47, i64 24
  %49 = load ptr, ptr %6, align 8, !tbaa !7
  %50 = getelementptr inbounds nuw %struct.mbedtls_lmots_public_t, ptr %49, i32 0, i32 1
  %51 = getelementptr inbounds [32 x i8], ptr %50, i64 0, i64 0
  %52 = load ptr, ptr %6, align 8, !tbaa !7
  %53 = getelementptr inbounds nuw %struct.mbedtls_lmots_public_t, ptr %52, i32 0, i32 0
  %54 = getelementptr inbounds nuw %struct.mbedtls_lmots_parameters_t, ptr %53, i32 0, i32 2
  %55 = load i32, ptr %54, align 4, !tbaa !13
  %56 = icmp eq i32 %55, 4
  %57 = select i1 %56, i32 32, i32 0
  %58 = zext i32 %57 to i64
  call void @llvm.memcpy.p0.p0.i64(ptr align 1 %48, ptr align 4 %51, i64 %58, i1 false)
  %59 = load ptr, ptr %9, align 8, !tbaa !17
  %60 = icmp ne ptr %59, null
  br i1 %60, label %61, label %71

61:                                               ; preds = %27
  %62 = load ptr, ptr %6, align 8, !tbaa !7
  %63 = getelementptr inbounds nuw %struct.mbedtls_lmots_public_t, ptr %62, i32 0, i32 0
  %64 = getelementptr inbounds nuw %struct.mbedtls_lmots_parameters_t, ptr %63, i32 0, i32 2
  %65 = load i32, ptr %64, align 4, !tbaa !13
  %66 = icmp eq i32 %65, 4
  %67 = select i1 %66, i32 32, i32 0
  %68 = add i32 24, %67
  %69 = zext i32 %68 to i64
  %70 = load ptr, ptr %9, align 8, !tbaa !17
  store i64 %69, ptr %70, align 8, !tbaa !11
  br label %71

71:                                               ; preds = %61, %27
  store i32 0, ptr %5, align 4
  br label %72

72:                                               ; preds = %71, %26, %20
  %73 = load i32, ptr %5, align 4
  ret i32 %73
}