; Function Attrs: mustprogress nofree norecurse nosync nounwind willreturn memory(argmem: readwrite) uwtable
define hidden range(i32 -25, 1) i32 @mbedtls_lmots_export_public_key(ptr noundef readonly captures(none) %0, ptr noundef writeonly captures(none) %1, i64 noundef %2, ptr noundef writeonly %3) local_unnamed_addr #5 {
  %5 = getelementptr inbounds nuw i8, ptr %0, i64 20
  %6 = load i32, ptr %5, align 4, !tbaa !3
  %7 = icmp eq i32 %6, 4
  %8 = select i1 %7, i64 56, i64 24
  %9 = icmp ult i64 %2, %8
  br i1 %9, label %28, label %10

10:                                               ; preds = %4
  %11 = getelementptr inbounds nuw i8, ptr %0, i64 56
  %12 = load i8, ptr %11, align 4, !tbaa !9
  %.not = icmp eq i8 %12, 0
  br i1 %.not, label %28, label %13

13:                                               ; preds = %10
  %14 = tail call i32 @llvm.bswap.i32(i32 %6)
  store i32 %14, ptr %1, align 1
  %15 = getelementptr inbounds nuw i8, ptr %1, i64 4
  tail call void @llvm.memcpy.p0.p0.i64(ptr noundef nonnull align 1 dereferenceable(16) %15, ptr noundef nonnull align 4 dereferenceable(16) %0, i64 16, i1 false)
  %16 = getelementptr inbounds nuw i8, ptr %1, i64 20
  %17 = getelementptr inbounds nuw i8, ptr %0, i64 16
  %18 = load i32, ptr %17, align 4
  store i32 %18, ptr %16, align 1
  %19 = getelementptr inbounds nuw i8, ptr %1, i64 24
  %20 = getelementptr inbounds nuw i8, ptr %0, i64 24
  %21 = load i32, ptr %5, align 4, !tbaa !3
  %22 = icmp eq i32 %21, 4
  %23 = select i1 %22, i64 32, i64 0
  tail call void @llvm.memcpy.p0.p0.i64(ptr nonnull align 1 %19, ptr nonnull align 4 %20, i64 %23, i1 false)
  %.not16 = icmp eq ptr %3, null
  br i1 %.not16, label %28, label %24

24:                                               ; preds = %13
  %25 = load i32, ptr %5, align 4, !tbaa !3
  %26 = icmp eq i32 %25, 4
  %27 = select i1 %26, i64 56, i64 24
  store i64 %27, ptr %3, align 8, !tbaa !10
  br label %28

28:                                               ; preds = %13, %24, %10, %4
  %.0 = phi i32 [ -25, %4 ], [ -17, %10 ], [ 0, %24 ], [ 0, %13 ]
  ret i32 %.0
}